(lp0
(dp1
S'accuracies_bayes_rgb'
p2
(lp3
F0.7238095238095238
aF0.7285714285714285
aF0.719047619047619
aF0.7238095238095238
aF0.7380952380952381
aF0.7476190476190476
aF0.7
aF0.6952380952380952
aF0.6952380952380952
aF0.7238095238095238
asS'accuracies_max_rule'
p4
(lp5
F0.9619047619047619
aF0.9571428571428572
aF0.9142857142857143
aF0.9428571428571428
aF0.9619047619047619
aF0.9523809523809523
aF0.9428571428571428
aF0.9428571428571428
aF0.9523809523809523
aF0.9428571428571428
asS'accuracies_bayes_complete'
p6
(lp7
F0.7952380952380952
aF0.8523809523809524
aF0.7904761904761904
aF0.819047619047619
aF0.8047619047619048
aF0.8333333333333334
aF0.8
aF0.7714285714285715
aF0.7904761904761904
aF0.7952380952380952
asS'accuracies_knn_shape'
p8
(lp9
F0.9
aF0.8809523809523809
aF0.9
aF0.9142857142857143
aF0.9
aF0.8857142857142857
aF0.8666666666666667
aF0.9047619047619048
aF0.8904761904761904
aF0.8333333333333334
asS'accuracies_bayes_shape'
p10
(lp11
F0.6428571428571429
aF0.7
aF0.6952380952380952
aF0.6571428571428571
aF0.6285714285714286
aF0.6571428571428571
aF0.6238095238095238
aF0.6333333333333333
aF0.6476190476190476
aF0.6619047619047619
asS'accuracies_knn_complete'
p12
(lp13
F0.9714285714285714
aF0.9523809523809523
aF0.9428571428571428
aF0.9619047619047619
aF0.9476190476190476
aF0.9571428571428572
aF0.9380952380952381
aF0.9476190476190476
aF0.9523809523809523
aF0.9523809523809523
asS'accuracies_knn_rgb'
p14
(lp15
F0.8952380952380953
aF0.8952380952380953
aF0.8476190476190476
aF0.9
aF0.9095238095238095
aF0.9095238095238095
aF0.919047619047619
aF0.8952380952380953
aF0.8904761904761904
aF0.9095238095238095
asa(dp16
g2
(lp17
F0.6857142857142857
aF0.7523809523809524
aF0.7380952380952381
aF0.719047619047619
aF0.719047619047619
aF0.7142857142857143
aF0.6904761904761905
aF0.7476190476190476
aF0.7142857142857143
aF0.719047619047619
asg4
(lp18
F0.9714285714285714
aF0.9476190476190476
aF0.9333333333333333
aF0.9238095238095239
aF0.9571428571428572
aF0.9333333333333333
aF0.9428571428571428
aF0.9380952380952381
aF0.9238095238095239
aF0.9142857142857143
asg6
(lp19
F0.861904761904762
aF0.7952380952380952
aF0.7714285714285715
aF0.8238095238095238
aF0.8333333333333334
aF0.8142857142857143
aF0.7714285714285715
aF0.8
aF0.819047619047619
aF0.7714285714285715
asg8
(lp20
F0.9095238095238095
aF0.8809523809523809
aF0.8571428571428571
aF0.8809523809523809
aF0.8857142857142857
aF0.8571428571428571
aF0.8952380952380953
aF0.8904761904761904
aF0.8952380952380953
aF0.8666666666666667
asg10
(lp21
F0.6571428571428571
aF0.6714285714285714
aF0.6428571428571429
aF0.638095238095238
aF0.6857142857142857
aF0.6428571428571429
aF0.6428571428571429
aF0.6333333333333333
aF0.680952380952381
aF0.6333333333333333
asg12
(lp22
F0.9714285714285714
aF0.9476190476190476
aF0.9476190476190476
aF0.9666666666666667
aF0.9619047619047619
aF0.9476190476190476
aF0.9523809523809523
aF0.9523809523809523
aF0.9428571428571428
aF0.9238095238095239
asg14
(lp23
F0.9
aF0.9142857142857143
aF0.8857142857142857
aF0.8666666666666667
aF0.9
aF0.9238095238095239
aF0.8809523809523809
aF0.9095238095238095
aF0.8857142857142857
aF0.9047619047619048
asa(dp24
g2
(lp25
F0.7238095238095238
aF0.7047619047619048
aF0.7761904761904762
aF0.7619047619047619
aF0.7523809523809524
aF0.7285714285714285
aF0.6952380952380952
aF0.6666666666666666
aF0.6952380952380952
aF0.7142857142857143
asg4
(lp26
F0.9523809523809523
aF0.9380952380952381
aF0.9523809523809523
aF0.9380952380952381
aF0.9523809523809523
aF0.9285714285714286
aF0.9523809523809523
aF0.9333333333333333
aF0.9333333333333333
aF0.9380952380952381
asg6
(lp27
F0.8142857142857143
aF0.8095238095238095
aF0.8
aF0.7857142857142857
aF0.8
aF0.8
aF0.8333333333333334
aF0.8
aF0.7904761904761904
aF0.7952380952380952
asg8
(lp28
F0.8571428571428571
aF0.9
aF0.9047619047619048
aF0.861904761904762
aF0.9
aF0.8904761904761904
aF0.919047619047619
aF0.8476190476190476
aF0.8952380952380953
aF0.8952380952380953
asg10
(lp29
F0.6761904761904762
aF0.6761904761904762
aF0.6238095238095238
aF0.6095238095238096
aF0.6761904761904762
aF0.6666666666666666
aF0.6476190476190476
aF0.6619047619047619
aF0.6523809523809524
aF0.6523809523809524
asg12
(lp30
F0.9333333333333333
aF0.9571428571428572
aF0.9666666666666667
aF0.9761904761904762
aF0.9476190476190476
aF0.9476190476190476
aF0.9428571428571428
aF0.9571428571428572
aF0.9619047619047619
aF0.9428571428571428
asg14
(lp31
F0.9238095238095239
aF0.8714285714285714
aF0.9476190476190476
aF0.8666666666666667
aF0.919047619047619
aF0.8904761904761904
aF0.9142857142857143
aF0.8714285714285714
aF0.8761904761904762
aF0.8857142857142857
asa(dp32
g2
(lp33
F0.7380952380952381
aF0.7428571428571429
aF0.680952380952381
aF0.7
aF0.7476190476190476
aF0.7619047619047619
aF0.7142857142857143
aF0.7
aF0.7095238095238096
aF0.7095238095238096
asg4
(lp34
F0.9238095238095239
aF0.9666666666666667
aF0.919047619047619
aF0.9666666666666667
aF0.9476190476190476
aF0.9333333333333333
aF0.9333333333333333
aF0.9428571428571428
aF0.9761904761904762
aF0.9523809523809523
asg6
(lp35
F0.7571428571428571
aF0.8380952380952381
aF0.8
aF0.819047619047619
aF0.7952380952380952
aF0.7476190476190476
aF0.8047619047619048
aF0.8095238095238095
aF0.8333333333333334
aF0.8380952380952381
asg8
(lp36
F0.8809523809523809
aF0.9285714285714286
aF0.8571428571428571
aF0.9047619047619048
aF0.8857142857142857
aF0.8904761904761904
aF0.8523809523809524
aF0.8857142857142857
aF0.861904761904762
aF0.8714285714285714
asg10
(lp37
F0.6428571428571429
aF0.6619047619047619
aF0.6666666666666666
aF0.6571428571428571
aF0.638095238095238
aF0.6333333333333333
aF0.6666666666666666
aF0.6476190476190476
aF0.6666666666666666
aF0.6476190476190476
asg12
(lp38
F0.9428571428571428
aF0.9619047619047619
aF0.9523809523809523
aF0.9857142857142858
aF0.9380952380952381
aF0.9380952380952381
aF0.9333333333333333
aF0.9523809523809523
aF0.9571428571428572
aF0.9476190476190476
asg14
(lp39
F0.8952380952380953
aF0.919047619047619
aF0.8380952380952381
aF0.8904761904761904
aF0.9047619047619048
aF0.9142857142857143
aF0.9095238095238095
aF0.8904761904761904
aF0.9142857142857143
aF0.9047619047619048
asa(dp40
g2
(lp41
F0.719047619047619
aF0.7142857142857143
aF0.7285714285714285
aF0.8047619047619048
aF0.7095238095238096
aF0.7285714285714285
aF0.7
aF0.7380952380952381
aF0.6857142857142857
aF0.7428571428571429
asg4
(lp42
F0.9666666666666667
aF0.9476190476190476
aF0.9238095238095239
aF0.9476190476190476
aF0.9523809523809523
aF0.9333333333333333
aF0.9380952380952381
aF0.9714285714285714
aF0.9333333333333333
aF0.9476190476190476
asg6
(lp43
F0.8047619047619048
aF0.8428571428571429
aF0.8238095238095238
aF0.8238095238095238
aF0.819047619047619
aF0.819047619047619
aF0.7904761904761904
aF0.8
aF0.7952380952380952
aF0.780952380952381
asg8
(lp44
F0.9
aF0.9095238095238095
aF0.8952380952380953
aF0.8761904761904762
aF0.8714285714285714
aF0.9095238095238095
aF0.8714285714285714
aF0.8809523809523809
aF0.8571428571428571
aF0.9
asg10
(lp45
F0.6571428571428571
aF0.6571428571428571
aF0.6476190476190476
aF0.6333333333333333
aF0.6761904761904762
aF0.6857142857142857
aF0.6761904761904762
aF0.6857142857142857
aF0.6095238095238096
aF0.6238095238095238
asg12
(lp46
F0.9714285714285714
aF0.9619047619047619
aF0.9523809523809523
aF0.9380952380952381
aF0.9523809523809523
aF0.9761904761904762
aF0.9380952380952381
aF0.9428571428571428
aF0.9380952380952381
aF0.9380952380952381
asg14
(lp47
F0.9095238095238095
aF0.9
aF0.8761904761904762
aF0.9285714285714286
aF0.8952380952380953
aF0.8904761904761904
aF0.9238095238095239
aF0.9
aF0.8809523809523809
aF0.8904761904761904
asa(dp48
g2
(lp49
F0.7571428571428571
aF0.7619047619047619
aF0.719047619047619
aF0.7142857142857143
aF0.6523809523809524
aF0.7333333333333333
aF0.7428571428571429
aF0.7571428571428571
aF0.7047619047619048
aF0.6904761904761905
asg4
(lp50
F0.9619047619047619
aF0.9428571428571428
aF0.9238095238095239
aF0.9380952380952381
aF0.9523809523809523
aF0.9285714285714286
aF0.9523809523809523
aF0.9666666666666667
aF0.9476190476190476
aF0.9523809523809523
asg6
(lp51
F0.7952380952380952
aF0.8523809523809524
aF0.7666666666666667
aF0.8333333333333334
aF0.7714285714285715
aF0.7619047619047619
aF0.7571428571428571
aF0.8380952380952381
aF0.819047619047619
aF0.819047619047619
asg8
(lp52
F0.9333333333333333
aF0.8428571428571429
aF0.8476190476190476
aF0.8857142857142857
aF0.8523809523809524
aF0.9095238095238095
aF0.8952380952380953
aF0.9095238095238095
aF0.9
aF0.8809523809523809
asg10
(lp53
F0.6666666666666666
aF0.6857142857142857
aF0.6238095238095238
aF0.6523809523809524
aF0.638095238095238
aF0.6476190476190476
aF0.6238095238095238
aF0.6666666666666666
aF0.6571428571428571
aF0.6571428571428571
asg12
(lp54
F0.9666666666666667
aF0.9571428571428572
aF0.9619047619047619
aF0.9380952380952381
aF0.9428571428571428
aF0.9571428571428572
aF0.9523809523809523
aF0.9714285714285714
aF0.9571428571428572
aF0.9428571428571428
asg14
(lp55
F0.9142857142857143
aF0.861904761904762
aF0.861904761904762
aF0.9047619047619048
aF0.9047619047619048
aF0.8904761904761904
aF0.9095238095238095
aF0.8952380952380953
aF0.9047619047619048
aF0.9238095238095239
asa(dp56
g2
(lp57
F0.7476190476190476
aF0.7666666666666667
aF0.7
aF0.7523809523809524
aF0.6857142857142857
aF0.7142857142857143
aF0.719047619047619
aF0.6952380952380952
aF0.7380952380952381
aF0.6952380952380952
asg4
(lp58
F0.9523809523809523
aF0.9666666666666667
aF0.9333333333333333
aF0.9571428571428572
aF0.919047619047619
aF0.9619047619047619
aF0.9428571428571428
aF0.9380952380952381
aF0.9714285714285714
aF0.9428571428571428
asg6
(lp59
F0.8047619047619048
aF0.780952380952381
aF0.8047619047619048
aF0.7952380952380952
aF0.7952380952380952
aF0.8
aF0.7904761904761904
aF0.8380952380952381
aF0.7952380952380952
aF0.8285714285714286
asg8
(lp60
F0.8666666666666667
aF0.9047619047619048
aF0.8857142857142857
aF0.8761904761904762
aF0.861904761904762
aF0.8666666666666667
aF0.8809523809523809
aF0.9047619047619048
aF0.9285714285714286
aF0.8904761904761904
asg10
(lp61
F0.6666666666666666
aF0.6285714285714286
aF0.6619047619047619
aF0.6142857142857143
aF0.6666666666666666
aF0.6190476190476191
aF0.680952380952381
aF0.6523809523809524
aF0.6619047619047619
aF0.7047619047619048
asg12
(lp62
F0.9571428571428572
aF0.9619047619047619
aF0.9619047619047619
aF0.9476190476190476
aF0.9476190476190476
aF0.9380952380952381
aF0.9428571428571428
aF0.9619047619047619
aF0.9523809523809523
aF0.9714285714285714
asg14
(lp63
F0.9095238095238095
aF0.9285714285714286
aF0.861904761904762
aF0.9333333333333333
aF0.9095238095238095
aF0.8666666666666667
aF0.9095238095238095
aF0.8761904761904762
aF0.9
aF0.861904761904762
asa(dp64
g2
(lp65
F0.7666666666666667
aF0.7428571428571429
aF0.7047619047619048
aF0.7238095238095238
aF0.7
aF0.6761904761904762
aF0.719047619047619
aF0.719047619047619
aF0.7047619047619048
aF0.7142857142857143
asg4
(lp66
F0.9428571428571428
aF0.9380952380952381
aF0.9571428571428572
aF0.9428571428571428
aF0.9476190476190476
aF0.9523809523809523
aF0.9380952380952381
aF0.9380952380952381
aF0.9285714285714286
aF0.9285714285714286
asg6
(lp67
F0.8285714285714286
aF0.7761904761904762
aF0.8333333333333334
aF0.7952380952380952
aF0.7952380952380952
aF0.7952380952380952
aF0.7904761904761904
aF0.8047619047619048
aF0.7523809523809524
aF0.8476190476190476
asg8
(lp68
F0.8761904761904762
aF0.9142857142857143
aF0.8857142857142857
aF0.8857142857142857
aF0.8714285714285714
aF0.8714285714285714
aF0.8857142857142857
aF0.8571428571428571
aF0.8761904761904762
aF0.8809523809523809
asg10
(lp69
F0.6428571428571429
aF0.6761904761904762
aF0.6428571428571429
aF0.6666666666666666
aF0.6095238095238096
aF0.6333333333333333
aF0.6904761904761905
aF0.6523809523809524
aF0.6476190476190476
aF0.6428571428571429
asg12
(lp70
F0.9476190476190476
aF0.9476190476190476
aF0.9428571428571428
aF0.9476190476190476
aF0.9761904761904762
aF0.9571428571428572
aF0.9571428571428572
aF0.9619047619047619
aF0.9428571428571428
aF0.9428571428571428
asg14
(lp71
F0.9095238095238095
aF0.8761904761904762
aF0.9428571428571428
aF0.8809523809523809
aF0.9095238095238095
aF0.8904761904761904
aF0.8857142857142857
aF0.9142857142857143
aF0.9
aF0.8857142857142857
asa(dp72
g2
(lp73
F0.6952380952380952
aF0.7619047619047619
aF0.7476190476190476
aF0.719047619047619
aF0.6952380952380952
aF0.6952380952380952
aF0.7238095238095238
aF0.7380952380952381
aF0.7095238095238096
aF0.7
asg4
(lp74
F0.9523809523809523
aF0.9523809523809523
aF0.9428571428571428
aF0.9476190476190476
aF0.9428571428571428
aF0.9523809523809523
aF0.9571428571428572
aF0.9285714285714286
aF0.9095238095238095
aF0.9619047619047619
asg6
(lp75
F0.8
aF0.8047619047619048
aF0.8238095238095238
aF0.7619047619047619
aF0.8571428571428571
aF0.7761904761904762
aF0.8285714285714286
aF0.8095238095238095
aF0.7619047619047619
aF0.8142857142857143
asg8
(lp76
F0.8904761904761904
aF0.8952380952380953
aF0.8809523809523809
aF0.8666666666666667
aF0.8761904761904762
aF0.8761904761904762
aF0.9142857142857143
aF0.8714285714285714
aF0.9047619047619048
aF0.8952380952380953
asg10
(lp77
F0.6523809523809524
aF0.6285714285714286
aF0.6714285714285714
aF0.6619047619047619
aF0.6904761904761905
aF0.6333333333333333
aF0.6428571428571429
aF0.6523809523809524
aF0.680952380952381
aF0.6285714285714286
asg12
(lp78
F0.9523809523809523
aF0.9571428571428572
aF0.9476190476190476
aF0.9571428571428572
aF0.9428571428571428
aF0.9523809523809523
aF0.9761904761904762
aF0.9523809523809523
aF0.9619047619047619
aF0.9761904761904762
asg14
(lp79
F0.9333333333333333
aF0.8857142857142857
aF0.9
aF0.861904761904762
aF0.9
aF0.9095238095238095
aF0.9380952380952381
aF0.8952380952380953
aF0.8857142857142857
aF0.9
asa(dp80
g2
(lp81
F0.7333333333333333
aF0.7285714285714285
aF0.7047619047619048
aF0.7047619047619048
aF0.7333333333333333
aF0.7285714285714285
aF0.7047619047619048
aF0.7238095238095238
aF0.7047619047619048
aF0.7619047619047619
asg4
(lp82
F0.9714285714285714
aF0.9285714285714286
aF0.9142857142857143
aF0.9428571428571428
aF0.919047619047619
aF0.9333333333333333
aF0.9333333333333333
aF0.9428571428571428
aF0.9428571428571428
aF0.9428571428571428
asg6
(lp83
F0.8285714285714286
aF0.7619047619047619
aF0.8095238095238095
aF0.7952380952380952
aF0.8142857142857143
aF0.8714285714285714
aF0.819047619047619
aF0.8238095238095238
aF0.7666666666666667
aF0.8333333333333334
asg8
(lp84
F0.8809523809523809
aF0.8904761904761904
aF0.9047619047619048
aF0.8857142857142857
aF0.8761904761904762
aF0.8904761904761904
aF0.8666666666666667
aF0.8714285714285714
aF0.8666666666666667
aF0.8523809523809524
asg10
(lp85
F0.6714285714285714
aF0.6285714285714286
aF0.6619047619047619
aF0.6523809523809524
aF0.6476190476190476
aF0.7
aF0.6666666666666666
aF0.6666666666666666
aF0.6476190476190476
aF0.6238095238095238
asg12
(lp86
F0.9666666666666667
aF0.9619047619047619
aF0.9619047619047619
aF0.9619047619047619
aF0.9428571428571428
aF0.9428571428571428
aF0.9285714285714286
aF0.9380952380952381
aF0.9380952380952381
aF0.9428571428571428
asg14
(lp87
F0.8952380952380953
aF0.8809523809523809
aF0.8857142857142857
aF0.861904761904762
aF0.8857142857142857
aF0.8904761904761904
aF0.8761904761904762
aF0.9
aF0.9333333333333333
aF0.9333333333333333
asa(dp88
g2
(lp89
F0.7238095238095238
aF0.7
aF0.7761904761904762
aF0.7238095238095238
aF0.7095238095238096
aF0.7380952380952381
aF0.7619047619047619
aF0.6904761904761905
aF0.6714285714285714
aF0.7428571428571429
asg4
(lp90
F0.9666666666666667
aF0.9666666666666667
aF0.9761904761904762
aF0.9380952380952381
aF0.9238095238095239
aF0.9523809523809523
aF0.9619047619047619
aF0.9333333333333333
aF0.9476190476190476
aF0.9142857142857143
asg6
(lp91
F0.8238095238095238
aF0.8285714285714286
aF0.7714285714285715
aF0.8
aF0.8095238095238095
aF0.819047619047619
aF0.8047619047619048
aF0.8380952380952381
aF0.7952380952380952
aF0.7714285714285715
asg8
(lp92
F0.8809523809523809
aF0.8904761904761904
aF0.8904761904761904
aF0.8952380952380953
aF0.861904761904762
aF0.9142857142857143
aF0.9
aF0.8904761904761904
aF0.8761904761904762
aF0.8809523809523809
asg10
(lp93
F0.6333333333333333
aF0.6666666666666666
aF0.680952380952381
aF0.5952380952380952
aF0.680952380952381
aF0.680952380952381
aF0.6523809523809524
aF0.6857142857142857
aF0.6333333333333333
aF0.638095238095238
asg12
(lp94
F0.9476190476190476
aF0.9571428571428572
aF0.9428571428571428
aF0.9666666666666667
aF0.9428571428571428
aF0.9523809523809523
aF0.9761904761904762
aF0.9476190476190476
aF0.9761904761904762
aF0.9428571428571428
asg14
(lp95
F0.9238095238095239
aF0.8952380952380953
aF0.9142857142857143
aF0.8952380952380953
aF0.8761904761904762
aF0.8714285714285714
aF0.9047619047619048
aF0.8809523809523809
aF0.8857142857142857
aF0.8809523809523809
asa(dp96
g2
(lp97
F0.7952380952380952
aF0.7142857142857143
aF0.6952380952380952
aF0.6761904761904762
aF0.7
aF0.7666666666666667
aF0.7380952380952381
aF0.7380952380952381
aF0.680952380952381
aF0.7238095238095238
asg4
(lp98
F0.9428571428571428
aF0.9238095238095239
aF0.9666666666666667
aF0.919047619047619
aF0.9428571428571428
aF0.9476190476190476
aF0.9333333333333333
aF0.9428571428571428
aF0.9761904761904762
aF0.9380952380952381
asg6
(lp99
F0.7904761904761904
aF0.8142857142857143
aF0.8428571428571429
aF0.8285714285714286
aF0.7857142857142857
aF0.8333333333333334
aF0.7857142857142857
aF0.8047619047619048
aF0.8333333333333334
aF0.8047619047619048
asg8
(lp100
F0.8952380952380953
aF0.8761904761904762
aF0.9142857142857143
aF0.861904761904762
aF0.8666666666666667
aF0.8761904761904762
aF0.8761904761904762
aF0.8904761904761904
aF0.9
aF0.8809523809523809
asg10
(lp101
F0.6238095238095238
aF0.638095238095238
aF0.680952380952381
aF0.680952380952381
aF0.6523809523809524
aF0.6619047619047619
aF0.6714285714285714
aF0.6428571428571429
aF0.6904761904761905
aF0.6285714285714286
asg12
(lp102
F0.9571428571428572
aF0.9428571428571428
aF0.9809523809523809
aF0.9523809523809523
aF0.9428571428571428
aF0.9619047619047619
aF0.9333333333333333
aF0.9142857142857143
aF0.9619047619047619
aF0.9476190476190476
asg14
(lp103
F0.8523809523809524
aF0.919047619047619
aF0.919047619047619
aF0.861904761904762
aF0.9047619047619048
aF0.919047619047619
aF0.9380952380952381
aF0.8952380952380953
aF0.8571428571428571
aF0.8952380952380953
asa(dp104
g2
(lp105
F0.680952380952381
aF0.7238095238095238
aF0.7142857142857143
aF0.7238095238095238
aF0.7333333333333333
aF0.7238095238095238
aF0.7095238095238096
aF0.719047619047619
aF0.7428571428571429
aF0.7380952380952381
asg4
(lp106
F0.9428571428571428
aF0.9380952380952381
aF0.9380952380952381
aF0.9333333333333333
aF0.9571428571428572
aF0.9571428571428572
aF0.9476190476190476
aF0.9428571428571428
aF0.9380952380952381
aF0.9619047619047619
asg6
(lp107
F0.8095238095238095
aF0.8142857142857143
aF0.7857142857142857
aF0.7714285714285715
aF0.819047619047619
aF0.7904761904761904
aF0.8809523809523809
aF0.7904761904761904
aF0.7857142857142857
aF0.8142857142857143
asg8
(lp108
F0.9047619047619048
aF0.8523809523809524
aF0.8761904761904762
aF0.8666666666666667
aF0.8809523809523809
aF0.9142857142857143
aF0.8952380952380953
aF0.8571428571428571
aF0.9142857142857143
aF0.8761904761904762
asg10
(lp109
F0.6523809523809524
aF0.6857142857142857
aF0.680952380952381
aF0.6333333333333333
aF0.6571428571428571
aF0.6476190476190476
aF0.6666666666666666
aF0.6619047619047619
aF0.6285714285714286
aF0.6333333333333333
asg12
(lp110
F0.9666666666666667
aF0.9333333333333333
aF0.9428571428571428
aF0.9380952380952381
aF0.9523809523809523
aF0.9380952380952381
aF0.9523809523809523
aF0.9571428571428572
aF0.9666666666666667
aF0.9619047619047619
asg14
(lp111
F0.8857142857142857
aF0.9095238095238095
aF0.8571428571428571
aF0.9
aF0.8904761904761904
aF0.9047619047619048
aF0.9
aF0.9142857142857143
aF0.9095238095238095
aF0.8952380952380953
asa(dp112
g2
(lp113
F0.7428571428571429
aF0.7333333333333333
aF0.7047619047619048
aF0.7380952380952381
aF0.7285714285714285
aF0.7285714285714285
aF0.6666666666666666
aF0.6904761904761905
aF0.7238095238095238
aF0.8095238095238095
asg4
(lp114
F0.9238095238095239
aF0.9333333333333333
aF0.9428571428571428
aF0.9666666666666667
aF0.9523809523809523
aF0.9857142857142858
aF0.9571428571428572
aF0.9238095238095239
aF0.9523809523809523
aF0.9095238095238095
asg6
(lp115
F0.819047619047619
aF0.8
aF0.8142857142857143
aF0.8238095238095238
aF0.819047619047619
aF0.8285714285714286
aF0.7952380952380952
aF0.8142857142857143
aF0.819047619047619
aF0.7761904761904762
asg8
(lp116
F0.8952380952380953
aF0.8571428571428571
aF0.8761904761904762
aF0.8952380952380953
aF0.8857142857142857
aF0.9047619047619048
aF0.9142857142857143
aF0.8666666666666667
aF0.8714285714285714
aF0.8666666666666667
asg10
(lp117
F0.6428571428571429
aF0.6428571428571429
aF0.638095238095238
aF0.6714285714285714
aF0.6190476190476191
aF0.6761904761904762
aF0.7095238095238096
aF0.638095238095238
aF0.6476190476190476
aF0.6571428571428571
asg12
(lp118
F0.9523809523809523
aF0.9619047619047619
aF0.9476190476190476
aF0.9666666666666667
aF0.9380952380952381
aF0.9571428571428572
aF0.9761904761904762
aF0.9428571428571428
aF0.9523809523809523
aF0.9333333333333333
asg14
(lp119
F0.8904761904761904
aF0.9
aF0.8809523809523809
aF0.9142857142857143
aF0.8809523809523809
aF0.919047619047619
aF0.9047619047619048
aF0.8904761904761904
aF0.9047619047619048
aF0.8761904761904762
asa(dp120
g2
(lp121
F0.7285714285714285
aF0.6952380952380952
aF0.7047619047619048
aF0.7380952380952381
aF0.7428571428571429
aF0.7142857142857143
aF0.719047619047619
aF0.7428571428571429
aF0.680952380952381
aF0.7333333333333333
asg4
(lp122
F0.9285714285714286
aF0.9666666666666667
aF0.9142857142857143
aF0.9428571428571428
aF0.919047619047619
aF0.9571428571428572
aF0.9476190476190476
aF0.9523809523809523
aF0.9380952380952381
aF0.9523809523809523
asg6
(lp123
F0.7857142857142857
aF0.8523809523809524
aF0.7571428571428571
aF0.819047619047619
aF0.8095238095238095
aF0.7952380952380952
aF0.8142857142857143
aF0.8142857142857143
aF0.7904761904761904
aF0.819047619047619
asg8
(lp124
F0.8523809523809524
aF0.919047619047619
aF0.9
aF0.8904761904761904
aF0.8809523809523809
aF0.8761904761904762
aF0.8952380952380953
aF0.9142857142857143
aF0.9047619047619048
aF0.8523809523809524
asg10
(lp125
F0.6285714285714286
aF0.6904761904761905
aF0.6428571428571429
aF0.6761904761904762
aF0.6666666666666666
aF0.6333333333333333
aF0.6666666666666666
aF0.6428571428571429
aF0.6761904761904762
aF0.6428571428571429
asg12
(lp126
F0.9333333333333333
aF0.9714285714285714
aF0.9238095238095239
aF0.9523809523809523
aF0.9571428571428572
aF0.9476190476190476
aF0.9571428571428572
aF0.9714285714285714
aF0.9333333333333333
aF0.9523809523809523
asg14
(lp127
F0.9095238095238095
aF0.9142857142857143
aF0.8761904761904762
aF0.8904761904761904
aF0.9142857142857143
aF0.9142857142857143
aF0.9
aF0.8761904761904762
aF0.8476190476190476
aF0.8857142857142857
asa(dp128
g2
(lp129
F0.6523809523809524
aF0.7285714285714285
aF0.7285714285714285
aF0.7428571428571429
aF0.7476190476190476
aF0.7523809523809524
aF0.7380952380952381
aF0.7
aF0.7142857142857143
aF0.6904761904761905
asg4
(lp130
F0.9476190476190476
aF0.9380952380952381
aF0.9571428571428572
aF0.9238095238095239
aF0.9238095238095239
aF0.9380952380952381
aF0.9571428571428572
aF0.9285714285714286
aF0.9714285714285714
aF0.9571428571428572
asg6
(lp131
F0.8
aF0.8047619047619048
aF0.7857142857142857
aF0.7952380952380952
aF0.8047619047619048
aF0.8333333333333334
aF0.8476190476190476
aF0.7666666666666667
aF0.819047619047619
aF0.7666666666666667
asg8
(lp132
F0.9047619047619048
aF0.9095238095238095
aF0.8714285714285714
aF0.8714285714285714
aF0.8809523809523809
aF0.9142857142857143
aF0.8857142857142857
aF0.8714285714285714
aF0.8857142857142857
aF0.861904761904762
asg10
(lp133
F0.6523809523809524
aF0.6523809523809524
aF0.6666666666666666
aF0.6476190476190476
aF0.6142857142857143
aF0.6761904761904762
aF0.6761904761904762
aF0.6761904761904762
aF0.6428571428571429
aF0.6238095238095238
asg12
(lp134
F0.9619047619047619
aF0.9523809523809523
aF0.9571428571428572
aF0.9333333333333333
aF0.9380952380952381
aF0.9523809523809523
aF0.9619047619047619
aF0.9428571428571428
aF0.9619047619047619
aF0.9428571428571428
asg14
(lp135
F0.9095238095238095
aF0.9047619047619048
aF0.9333333333333333
aF0.8714285714285714
aF0.8904761904761904
aF0.919047619047619
aF0.8571428571428571
aF0.8476190476190476
aF0.9238095238095239
aF0.919047619047619
asa(dp136
g2
(lp137
F0.7142857142857143
aF0.7428571428571429
aF0.7095238095238096
aF0.7142857142857143
aF0.7285714285714285
aF0.7333333333333333
aF0.7
aF0.719047619047619
aF0.7476190476190476
aF0.7047619047619048
asg4
(lp138
F0.9380952380952381
aF0.9428571428571428
aF0.9619047619047619
aF0.9523809523809523
aF0.9380952380952381
aF0.9380952380952381
aF0.9428571428571428
aF0.9380952380952381
aF0.9428571428571428
aF0.9428571428571428
asg6
(lp139
F0.8523809523809524
aF0.8
aF0.819047619047619
aF0.8142857142857143
aF0.780952380952381
aF0.8047619047619048
aF0.780952380952381
aF0.8
aF0.7714285714285715
aF0.8095238095238095
asg8
(lp140
F0.8904761904761904
aF0.8523809523809524
aF0.8809523809523809
aF0.861904761904762
aF0.919047619047619
aF0.8714285714285714
aF0.8857142857142857
aF0.9047619047619048
aF0.8857142857142857
aF0.9095238095238095
asg10
(lp141
F0.680952380952381
aF0.6428571428571429
aF0.6666666666666666
aF0.6428571428571429
aF0.6285714285714286
aF0.6523809523809524
aF0.638095238095238
aF0.6238095238095238
aF0.6857142857142857
aF0.6571428571428571
asg12
(lp142
F0.9571428571428572
aF0.9380952380952381
aF0.9619047619047619
aF0.9285714285714286
aF0.9619047619047619
aF0.9571428571428572
aF0.9523809523809523
aF0.9714285714285714
aF0.9380952380952381
aF0.9571428571428572
asg14
(lp143
F0.8952380952380953
aF0.8952380952380953
aF0.8857142857142857
aF0.8666666666666667
aF0.9047619047619048
aF0.9285714285714286
aF0.8952380952380953
aF0.9142857142857143
aF0.8952380952380953
aF0.9142857142857143
asa(dp144
g2
(lp145
F0.6714285714285714
aF0.719047619047619
aF0.7619047619047619
aF0.6857142857142857
aF0.6952380952380952
aF0.7333333333333333
aF0.7523809523809524
aF0.7285714285714285
aF0.7619047619047619
aF0.7047619047619048
asg4
(lp146
F0.919047619047619
aF0.9571428571428572
aF0.9523809523809523
aF0.9333333333333333
aF0.9142857142857143
aF0.9523809523809523
aF0.9571428571428572
aF0.9476190476190476
aF0.9619047619047619
aF0.9523809523809523
asg6
(lp147
F0.8
aF0.780952380952381
aF0.780952380952381
aF0.8238095238095238
aF0.8476190476190476
aF0.7952380952380952
aF0.8
aF0.7714285714285715
aF0.8666666666666667
aF0.8095238095238095
asg8
(lp148
F0.8666666666666667
aF0.8714285714285714
aF0.8952380952380953
aF0.8571428571428571
aF0.9095238095238095
aF0.8809523809523809
aF0.9095238095238095
aF0.9
aF0.8857142857142857
aF0.9
asg10
(lp149
F0.6619047619047619
aF0.6238095238095238
aF0.6428571428571429
aF0.6428571428571429
aF0.6571428571428571
aF0.6619047619047619
aF0.6666666666666666
aF0.6761904761904762
aF0.6666666666666666
aF0.6428571428571429
asg12
(lp150
F0.9333333333333333
aF0.9571428571428572
aF0.9380952380952381
aF0.9380952380952381
aF0.9523809523809523
aF0.9571428571428572
aF0.9714285714285714
aF0.9619047619047619
aF0.9571428571428572
aF0.9619047619047619
asg14
(lp151
F0.8571428571428571
aF0.8952380952380953
aF0.9095238095238095
aF0.8761904761904762
aF0.8857142857142857
aF0.9
aF0.9095238095238095
aF0.8904761904761904
aF0.9047619047619048
aF0.9285714285714286
asa(dp152
g2
(lp153
F0.7238095238095238
aF0.7238095238095238
aF0.719047619047619
aF0.7285714285714285
aF0.7523809523809524
aF0.7428571428571429
aF0.7142857142857143
aF0.7333333333333333
aF0.680952380952381
aF0.7285714285714285
asg4
(lp154
F0.9761904761904762
aF0.9523809523809523
aF0.919047619047619
aF0.9476190476190476
aF0.9619047619047619
aF0.9571428571428572
aF0.9476190476190476
aF0.9285714285714286
aF0.9238095238095239
aF0.9476190476190476
asg6
(lp155
F0.7523809523809524
aF0.8285714285714286
aF0.7904761904761904
aF0.7761904761904762
aF0.7904761904761904
aF0.8238095238095238
aF0.8
aF0.780952380952381
aF0.8952380952380953
aF0.8142857142857143
asg8
(lp156
F0.9095238095238095
aF0.8952380952380953
aF0.8523809523809524
aF0.9238095238095239
aF0.8904761904761904
aF0.8904761904761904
aF0.8523809523809524
aF0.8476190476190476
aF0.8714285714285714
aF0.9
asg10
(lp157
F0.6523809523809524
aF0.6476190476190476
aF0.6428571428571429
aF0.6523809523809524
aF0.6571428571428571
aF0.680952380952381
aF0.6476190476190476
aF0.6523809523809524
aF0.6666666666666666
aF0.6428571428571429
asg12
(lp158
F0.9761904761904762
aF0.9619047619047619
aF0.9428571428571428
aF0.9666666666666667
aF0.9523809523809523
aF0.9523809523809523
aF0.9238095238095239
aF0.9333333333333333
aF0.9428571428571428
aF0.9714285714285714
asg14
(lp159
F0.9047619047619048
aF0.9
aF0.9095238095238095
aF0.9
aF0.9142857142857143
aF0.8857142857142857
aF0.8857142857142857
aF0.8952380952380953
aF0.8809523809523809
aF0.8761904761904762
asa(dp160
g2
(lp161
F0.719047619047619
aF0.7238095238095238
aF0.6904761904761905
aF0.7380952380952381
aF0.7238095238095238
aF0.719047619047619
aF0.7238095238095238
aF0.7095238095238096
aF0.7428571428571429
aF0.7380952380952381
asg4
(lp162
F0.9428571428571428
aF0.9571428571428572
aF0.9761904761904762
aF0.919047619047619
aF0.9476190476190476
aF0.9523809523809523
aF0.919047619047619
aF0.9428571428571428
aF0.9571428571428572
aF0.9
asg6
(lp163
F0.7952380952380952
aF0.8142857142857143
aF0.861904761904762
aF0.7333333333333333
aF0.8047619047619048
aF0.819047619047619
aF0.819047619047619
aF0.8380952380952381
aF0.780952380952381
aF0.780952380952381
asg8
(lp164
F0.8761904761904762
aF0.9095238095238095
aF0.9095238095238095
aF0.8761904761904762
aF0.9047619047619048
aF0.8904761904761904
aF0.8523809523809524
aF0.8809523809523809
aF0.8809523809523809
aF0.8476190476190476
asg10
(lp165
F0.6428571428571429
aF0.6857142857142857
aF0.6666666666666666
aF0.6523809523809524
aF0.6666666666666666
aF0.6571428571428571
aF0.6238095238095238
aF0.6476190476190476
aF0.6714285714285714
aF0.638095238095238
asg12
(lp166
F0.9333333333333333
aF0.9428571428571428
aF0.9714285714285714
aF0.9428571428571428
aF0.9714285714285714
aF0.9714285714285714
aF0.9333333333333333
aF0.9619047619047619
aF0.9523809523809523
aF0.9333333333333333
asg14
(lp167
F0.8952380952380953
aF0.8857142857142857
aF0.8904761904761904
aF0.8857142857142857
aF0.9142857142857143
aF0.9142857142857143
aF0.8904761904761904
aF0.9095238095238095
aF0.8809523809523809
aF0.8714285714285714
asa(dp168
g2
(lp169
F0.7619047619047619
aF0.7333333333333333
aF0.7142857142857143
aF0.7238095238095238
aF0.7142857142857143
aF0.719047619047619
aF0.7142857142857143
aF0.7047619047619048
aF0.7285714285714285
aF0.7238095238095238
asg4
(lp170
F0.9571428571428572
aF0.9523809523809523
aF0.9380952380952381
aF0.919047619047619
aF0.9238095238095239
aF0.9333333333333333
aF0.9571428571428572
aF0.9523809523809523
aF0.9380952380952381
aF0.9523809523809523
asg6
(lp171
F0.8238095238095238
aF0.819047619047619
aF0.8047619047619048
aF0.7904761904761904
aF0.7476190476190476
aF0.8
aF0.8285714285714286
aF0.7714285714285715
aF0.8047619047619048
aF0.8285714285714286
asg8
(lp172
F0.8952380952380953
aF0.9095238095238095
aF0.8571428571428571
aF0.8952380952380953
aF0.8666666666666667
aF0.8571428571428571
aF0.8761904761904762
aF0.9142857142857143
aF0.8952380952380953
aF0.8666666666666667
asg10
(lp173
F0.6857142857142857
aF0.6857142857142857
aF0.6571428571428571
aF0.6904761904761905
aF0.6047619047619047
aF0.6619047619047619
aF0.6761904761904762
aF0.6523809523809524
aF0.5952380952380952
aF0.6333333333333333
asg12
(lp174
F0.9666666666666667
aF0.9666666666666667
aF0.9428571428571428
aF0.9380952380952381
aF0.9523809523809523
aF0.9428571428571428
aF0.9523809523809523
aF0.9476190476190476
aF0.9571428571428572
aF0.9809523809523809
asg14
(lp175
F0.8857142857142857
aF0.9
aF0.8952380952380953
aF0.9
aF0.9
aF0.9142857142857143
aF0.9095238095238095
aF0.919047619047619
aF0.8904761904761904
aF0.9
asa(dp176
g2
(lp177
F0.7047619047619048
aF0.7285714285714285
aF0.7523809523809524
aF0.7333333333333333
aF0.680952380952381
aF0.7285714285714285
aF0.7142857142857143
aF0.6952380952380952
aF0.7476190476190476
aF0.7333333333333333
asg4
(lp178
F0.9285714285714286
aF0.9333333333333333
aF0.9666666666666667
aF0.9571428571428572
aF0.9238095238095239
aF0.9571428571428572
aF0.9333333333333333
aF0.9476190476190476
aF0.9285714285714286
aF0.9476190476190476
asg6
(lp179
F0.819047619047619
aF0.7904761904761904
aF0.8380952380952381
aF0.819047619047619
aF0.7952380952380952
aF0.8142857142857143
aF0.8333333333333334
aF0.819047619047619
aF0.780952380952381
aF0.7904761904761904
asg8
(lp180
F0.8809523809523809
aF0.8761904761904762
aF0.8952380952380953
aF0.8809523809523809
aF0.819047619047619
aF0.9095238095238095
aF0.8809523809523809
aF0.8523809523809524
aF0.8857142857142857
aF0.9095238095238095
asg10
(lp181
F0.6333333333333333
aF0.638095238095238
aF0.6428571428571429
aF0.6571428571428571
aF0.6476190476190476
aF0.6857142857142857
aF0.6476190476190476
aF0.6857142857142857
aF0.6571428571428571
aF0.6666666666666666
asg12
(lp182
F0.9380952380952381
aF0.9428571428571428
aF0.9761904761904762
aF0.9571428571428572
aF0.9476190476190476
aF0.9714285714285714
aF0.9380952380952381
aF0.9428571428571428
aF0.9333333333333333
aF0.9571428571428572
asg14
(lp183
F0.9095238095238095
aF0.8857142857142857
aF0.9333333333333333
aF0.9095238095238095
aF0.8809523809523809
aF0.9095238095238095
aF0.8857142857142857
aF0.8904761904761904
aF0.8761904761904762
aF0.8904761904761904
asa(dp184
g2
(lp185
F0.7142857142857143
aF0.7
aF0.7476190476190476
aF0.7
aF0.7142857142857143
aF0.7047619047619048
aF0.7380952380952381
aF0.6761904761904762
aF0.7666666666666667
aF0.6904761904761905
asg4
(lp186
F0.9380952380952381
aF0.9761904761904762
aF0.9571428571428572
aF0.9238095238095239
aF0.9238095238095239
aF0.9380952380952381
aF0.9523809523809523
aF0.9428571428571428
aF0.9476190476190476
aF0.9571428571428572
asg6
(lp187
F0.8380952380952381
aF0.7952380952380952
aF0.8142857142857143
aF0.7857142857142857
aF0.7761904761904762
aF0.819047619047619
aF0.8095238095238095
aF0.8238095238095238
aF0.7714285714285715
aF0.7666666666666667
asg8
(lp188
F0.8714285714285714
aF0.9142857142857143
aF0.8952380952380953
aF0.8523809523809524
aF0.8761904761904762
aF0.8952380952380953
aF0.9
aF0.8952380952380953
aF0.8761904761904762
aF0.8857142857142857
asg10
(lp189
F0.6619047619047619
aF0.6619047619047619
aF0.638095238095238
aF0.6333333333333333
aF0.6619047619047619
aF0.6523809523809524
aF0.6523809523809524
aF0.6428571428571429
aF0.6714285714285714
aF0.6428571428571429
asg12
(lp190
F0.9285714285714286
aF0.9619047619047619
aF0.9761904761904762
aF0.9476190476190476
aF0.9571428571428572
aF0.9571428571428572
aF0.9809523809523809
aF0.9619047619047619
aF0.9428571428571428
aF0.9619047619047619
asg14
(lp191
F0.8666666666666667
aF0.9095238095238095
aF0.9285714285714286
aF0.8857142857142857
aF0.8952380952380953
aF0.8571428571428571
aF0.919047619047619
aF0.8952380952380953
aF0.8952380952380953
aF0.8714285714285714
asa(dp192
g2
(lp193
F0.680952380952381
aF0.7523809523809524
aF0.7428571428571429
aF0.7047619047619048
aF0.7333333333333333
aF0.6904761904761905
aF0.7142857142857143
aF0.7380952380952381
aF0.7238095238095238
aF0.7047619047619048
asg4
(lp194
F0.9380952380952381
aF0.9619047619047619
aF0.9523809523809523
aF0.9428571428571428
aF0.9333333333333333
aF0.9380952380952381
aF0.9238095238095239
aF0.9523809523809523
aF0.9333333333333333
aF0.9380952380952381
asg6
(lp195
F0.8380952380952381
aF0.8285714285714286
aF0.7666666666666667
aF0.7857142857142857
aF0.8047619047619048
aF0.8142857142857143
aF0.8333333333333334
aF0.8
aF0.8047619047619048
aF0.8428571428571429
asg8
(lp196
F0.8666666666666667
aF0.8809523809523809
aF0.8523809523809524
aF0.8904761904761904
aF0.8809523809523809
aF0.8809523809523809
aF0.8809523809523809
aF0.8952380952380953
aF0.8904761904761904
aF0.8809523809523809
asg10
(lp197
F0.6095238095238096
aF0.6619047619047619
aF0.6476190476190476
aF0.638095238095238
aF0.6476190476190476
aF0.7095238095238096
aF0.638095238095238
aF0.6761904761904762
aF0.6523809523809524
aF0.6476190476190476
asg12
(lp198
F0.9238095238095239
aF0.9666666666666667
aF0.9142857142857143
aF0.9619047619047619
aF0.9523809523809523
aF0.9476190476190476
aF0.9476190476190476
aF0.9666666666666667
aF0.9714285714285714
aF0.9619047619047619
asg14
(lp199
F0.9047619047619048
aF0.9285714285714286
aF0.9047619047619048
aF0.9238095238095239
aF0.861904761904762
aF0.8904761904761904
aF0.8904761904761904
aF0.8714285714285714
aF0.8809523809523809
aF0.9
asa(dp200
g2
(lp201
F0.719047619047619
aF0.7095238095238096
aF0.7285714285714285
aF0.7333333333333333
aF0.6904761904761905
aF0.7238095238095238
aF0.7285714285714285
aF0.7333333333333333
aF0.7047619047619048
aF0.6952380952380952
asg4
(lp202
F0.9380952380952381
aF0.9095238095238095
aF0.9523809523809523
aF0.9428571428571428
aF0.9523809523809523
aF0.9476190476190476
aF0.9476190476190476
aF0.9380952380952381
aF0.9428571428571428
aF0.9476190476190476
asg6
(lp203
F0.780952380952381
aF0.8238095238095238
aF0.8476190476190476
aF0.8095238095238095
aF0.7666666666666667
aF0.8380952380952381
aF0.8
aF0.7666666666666667
aF0.8047619047619048
aF0.8047619047619048
asg8
(lp204
F0.8952380952380953
aF0.9047619047619048
aF0.8904761904761904
aF0.8761904761904762
aF0.9238095238095239
aF0.9047619047619048
aF0.8714285714285714
aF0.8666666666666667
aF0.8857142857142857
aF0.8904761904761904
asg10
(lp205
F0.6571428571428571
aF0.6428571428571429
aF0.7142857142857143
aF0.6857142857142857
aF0.5904761904761905
aF0.6571428571428571
aF0.6285714285714286
aF0.638095238095238
aF0.6333333333333333
aF0.6333333333333333
asg12
(lp206
F0.9428571428571428
aF0.9380952380952381
aF0.9428571428571428
aF0.9380952380952381
aF0.9761904761904762
aF0.9428571428571428
aF0.9571428571428572
aF0.9238095238095239
aF0.9714285714285714
aF0.9523809523809523
asg14
(lp207
F0.8809523809523809
aF0.9238095238095239
aF0.8714285714285714
aF0.9095238095238095
aF0.9142857142857143
aF0.9047619047619048
aF0.9095238095238095
aF0.8666666666666667
aF0.8857142857142857
aF0.8952380952380953
asa(dp208
g2
(lp209
F0.7428571428571429
aF0.719047619047619
aF0.6952380952380952
aF0.7571428571428571
aF0.719047619047619
aF0.6904761904761905
aF0.7333333333333333
aF0.7
aF0.7619047619047619
aF0.7047619047619048
asg4
(lp210
F0.9523809523809523
aF0.9476190476190476
aF0.9333333333333333
aF0.9333333333333333
aF0.9238095238095239
aF0.9666666666666667
aF0.9238095238095239
aF0.9285714285714286
aF0.9476190476190476
aF0.9523809523809523
asg6
(lp211
F0.7857142857142857
aF0.8142857142857143
aF0.7857142857142857
aF0.7666666666666667
aF0.819047619047619
aF0.8047619047619048
aF0.8095238095238095
aF0.819047619047619
aF0.8428571428571429
aF0.8238095238095238
asg8
(lp212
F0.9047619047619048
aF0.8428571428571429
aF0.8476190476190476
aF0.8666666666666667
aF0.8809523809523809
aF0.919047619047619
aF0.8904761904761904
aF0.8952380952380953
aF0.8904761904761904
aF0.8904761904761904
asg10
(lp213
F0.6619047619047619
aF0.6714285714285714
aF0.6523809523809524
aF0.6238095238095238
aF0.6619047619047619
aF0.6666666666666666
aF0.6571428571428571
aF0.6476190476190476
aF0.6571428571428571
aF0.6666666666666666
asg12
(lp214
F0.9666666666666667
aF0.9285714285714286
aF0.9523809523809523
aF0.9523809523809523
aF0.9380952380952381
aF0.9666666666666667
aF0.9666666666666667
aF0.9428571428571428
aF0.9619047619047619
aF0.9428571428571428
asg14
(lp215
F0.8904761904761904
aF0.8904761904761904
aF0.8809523809523809
aF0.8904761904761904
aF0.8666666666666667
aF0.8904761904761904
aF0.8857142857142857
aF0.9095238095238095
aF0.9
aF0.919047619047619
asa(dp216
g2
(lp217
F0.7285714285714285
aF0.6952380952380952
aF0.7142857142857143
aF0.7523809523809524
aF0.6761904761904762
aF0.7
aF0.7571428571428571
aF0.6952380952380952
aF0.7238095238095238
aF0.7476190476190476
asg4
(lp218
F0.9
aF0.9238095238095239
aF0.9666666666666667
aF0.9523809523809523
aF0.9095238095238095
aF0.9571428571428572
aF0.9761904761904762
aF0.9333333333333333
aF0.9238095238095239
aF0.9380952380952381
asg6
(lp219
F0.8095238095238095
aF0.7857142857142857
aF0.819047619047619
aF0.8238095238095238
aF0.8285714285714286
aF0.8095238095238095
aF0.8095238095238095
aF0.7619047619047619
aF0.8523809523809524
aF0.7857142857142857
asg8
(lp220
F0.8809523809523809
aF0.8857142857142857
aF0.9047619047619048
aF0.9047619047619048
aF0.8476190476190476
aF0.8571428571428571
aF0.8952380952380953
aF0.9047619047619048
aF0.8952380952380953
aF0.8809523809523809
asg10
(lp221
F0.6523809523809524
aF0.6476190476190476
aF0.6619047619047619
aF0.6476190476190476
aF0.6619047619047619
aF0.6333333333333333
aF0.6333333333333333
aF0.6285714285714286
aF0.719047619047619
aF0.6285714285714286
asg12
(lp222
F0.9428571428571428
aF0.9380952380952381
aF0.9761904761904762
aF0.9666666666666667
aF0.9285714285714286
aF0.9476190476190476
aF0.9619047619047619
aF0.9571428571428572
aF0.9571428571428572
aF0.9238095238095239
asg14
(lp223
F0.8904761904761904
aF0.8952380952380953
aF0.9142857142857143
aF0.8952380952380953
aF0.8523809523809524
aF0.9333333333333333
aF0.9476190476190476
aF0.8857142857142857
aF0.9047619047619048
aF0.8809523809523809
asa(dp224
g2
(lp225
F0.6952380952380952
aF0.7142857142857143
aF0.719047619047619
aF0.7142857142857143
aF0.6714285714285714
aF0.7285714285714285
aF0.7428571428571429
aF0.780952380952381
aF0.7333333333333333
aF0.7095238095238096
asg4
(lp226
F0.9571428571428572
aF0.9476190476190476
aF0.9380952380952381
aF0.9714285714285714
aF0.9476190476190476
aF0.9380952380952381
aF0.9476190476190476
aF0.9142857142857143
aF0.9476190476190476
aF0.9380952380952381
asg6
(lp227
F0.780952380952381
aF0.8285714285714286
aF0.7904761904761904
aF0.819047619047619
aF0.8238095238095238
aF0.7952380952380952
aF0.819047619047619
aF0.8142857142857143
aF0.8333333333333334
aF0.8523809523809524
asg8
(lp228
F0.9285714285714286
aF0.9047619047619048
aF0.8904761904761904
aF0.8714285714285714
aF0.8904761904761904
aF0.919047619047619
aF0.8714285714285714
aF0.8333333333333334
aF0.8571428571428571
aF0.8857142857142857
asg10
(lp229
F0.6476190476190476
aF0.6523809523809524
aF0.6666666666666666
aF0.6523809523809524
aF0.6476190476190476
aF0.638095238095238
aF0.6523809523809524
aF0.6476190476190476
aF0.6619047619047619
aF0.6619047619047619
asg12
(lp230
F0.9761904761904762
aF0.9380952380952381
aF0.9428571428571428
aF0.9619047619047619
aF0.9857142857142858
aF0.9666666666666667
aF0.9380952380952381
aF0.9333333333333333
aF0.9428571428571428
aF0.9380952380952381
asg14
(lp231
F0.9047619047619048
aF0.9
aF0.8333333333333334
aF0.9285714285714286
aF0.9142857142857143
aF0.8523809523809524
aF0.9142857142857143
aF0.8809523809523809
aF0.8809523809523809
aF0.9095238095238095
asa(dp232
g2
(lp233
F0.638095238095238
aF0.780952380952381
aF0.7
aF0.7333333333333333
aF0.7238095238095238
aF0.7142857142857143
aF0.7428571428571429
aF0.7238095238095238
aF0.7523809523809524
aF0.7428571428571429
asg4
(lp234
F0.9428571428571428
aF0.9666666666666667
aF0.919047619047619
aF0.9619047619047619
aF0.9476190476190476
aF0.9333333333333333
aF0.9523809523809523
aF0.9142857142857143
aF0.9476190476190476
aF0.9714285714285714
asg6
(lp235
F0.8428571428571429
aF0.7904761904761904
aF0.7714285714285715
aF0.8095238095238095
aF0.8333333333333334
aF0.8047619047619048
aF0.7857142857142857
aF0.8476190476190476
aF0.8238095238095238
aF0.8047619047619048
asg8
(lp236
F0.8761904761904762
aF0.9
aF0.8666666666666667
aF0.9047619047619048
aF0.8904761904761904
aF0.8476190476190476
aF0.8857142857142857
aF0.8952380952380953
aF0.8904761904761904
aF0.8904761904761904
asg10
(lp237
F0.6761904761904762
aF0.638095238095238
aF0.6238095238095238
aF0.638095238095238
aF0.6428571428571429
aF0.638095238095238
aF0.6857142857142857
aF0.6714285714285714
aF0.6714285714285714
aF0.6714285714285714
asg12
(lp238
F0.9619047619047619
aF0.9571428571428572
aF0.9523809523809523
aF0.9571428571428572
aF0.9714285714285714
aF0.9428571428571428
aF0.9380952380952381
aF0.9666666666666667
aF0.9523809523809523
aF0.9428571428571428
asg14
(lp239
F0.8714285714285714
aF0.9238095238095239
aF0.8952380952380953
aF0.9238095238095239
aF0.8761904761904762
aF0.8952380952380953
aF0.9047619047619048
aF0.861904761904762
aF0.9142857142857143
aF0.8952380952380953
asa(dp240
g2
(lp241
F0.7380952380952381
aF0.7333333333333333
aF0.7
aF0.7333333333333333
aF0.7619047619047619
aF0.7047619047619048
aF0.7142857142857143
aF0.7333333333333333
aF0.7095238095238096
aF0.6904761904761905
asg4
(lp242
F0.9428571428571428
aF0.9333333333333333
aF0.9476190476190476
aF0.9380952380952381
aF0.9523809523809523
aF0.9142857142857143
aF0.919047619047619
aF0.9571428571428572
aF0.9428571428571428
aF0.9571428571428572
asg6
(lp243
F0.7619047619047619
aF0.8714285714285714
aF0.7952380952380952
aF0.7904761904761904
aF0.819047619047619
aF0.7714285714285715
aF0.8761904761904762
aF0.7904761904761904
aF0.7952380952380952
aF0.7666666666666667
asg8
(lp244
F0.861904761904762
aF0.8761904761904762
aF0.8809523809523809
aF0.9428571428571428
aF0.8761904761904762
aF0.8666666666666667
aF0.8666666666666667
aF0.9
aF0.8809523809523809
aF0.8857142857142857
asg10
(lp245
F0.638095238095238
aF0.6904761904761905
aF0.6619047619047619
aF0.6714285714285714
aF0.6666666666666666
aF0.6238095238095238
aF0.6571428571428571
aF0.6619047619047619
aF0.6142857142857143
aF0.6428571428571429
asg12
(lp246
F0.9571428571428572
aF0.9428571428571428
aF0.9523809523809523
aF0.9666666666666667
aF0.9476190476190476
aF0.9380952380952381
aF0.9428571428571428
aF0.9285714285714286
aF0.9619047619047619
aF0.9714285714285714
asg14
(lp247
F0.9047619047619048
aF0.8857142857142857
aF0.9
aF0.8714285714285714
aF0.9047619047619048
aF0.8857142857142857
aF0.9047619047619048
aF0.919047619047619
aF0.8809523809523809
aF0.8857142857142857
asa.