(lp0
(lp1
I1
aF0.9040476190476191
aa(lp2
I3
aF0.9059523809523808
aa(lp3
I5
aF0.9054761904761905
aa(lp4
I7
aF0.9009523809523812
aa(lp5
I9
aF0.9016666666666666
aa(lp6
I11
aF0.8990476190476191
aa(lp7
I13
aF0.8938095238095238
aa(lp8
I15
aF0.8919047619047618
aa(lp9
I17
aF0.8897619047619048
aa(lp10
I19
aF0.8878571428571428
aa.