(lp0
(lp1
I1
aF0.9914285714285714
aa(lp2
I3
aF0.9476190476190476
aa(lp3
I5
aF0.9280952380952381
aa(lp4
I7
aF0.9171428571428571
aa(lp5
I9
aF0.909047619047619
aa(lp6
I11
aF0.9057142857142857
aa(lp7
I13
aF0.9
aa(lp8
I15
aF0.8942857142857142
aa(lp9
I17
aF0.8914285714285715
aa(lp10
I19
aF0.8828571428571429
aa(lp11
I21
aF0.8757142857142857
aa(lp12
I23
aF0.8771428571428571
aa(lp13
I25
aF0.8757142857142857
aa(lp14
I27
aF0.8709523809523809
aa(lp15
I29
aF0.8628571428571429
aa(lp16
I31
aF0.8557142857142858
aa(lp17
I33
aF0.8542857142857143
aa(lp18
I35
aF0.8509523809523809
aa(lp19
I37
aF0.8433333333333334
aa(lp20
I39
aF0.8376190476190476
aa(lp21
I41
aF0.8371428571428572
aa(lp22
I43
aF0.8352380952380952
aa(lp23
I45
aF0.8314285714285714
aa(lp24
I47
aF0.8314285714285714
aa(lp25
I49
aF0.8271428571428572
aa(lp26
I51
aF0.8233333333333334
aa(lp27
I53
aF0.8214285714285714
aa(lp28
I55
aF0.82
aa(lp29
I57
aF0.8152380952380952
aa(lp30
I59
aF0.8147619047619048
aa(lp31
I61
aF0.8152380952380952
aa(lp32
I63
aF0.8119047619047619
aa(lp33
I65
aF0.810952380952381
aa(lp34
I67
aF0.8119047619047619
aa(lp35
I69
aF0.8104761904761905
aa(lp36
I71
aF0.8114285714285714
aa(lp37
I73
aF0.8095238095238095
aa(lp38
I75
aF0.8076190476190476
aa(lp39
I77
aF0.8052380952380952
aa(lp40
I79
aF0.8038095238095239
aa(lp41
I81
aF0.8052380952380952
aa(lp42
I83
aF0.8061904761904762
aa(lp43
I85
aF0.8
aa(lp44
I87
aF0.8004761904761905
aa(lp45
I89
aF0.8014285714285714
aa(lp46
I91
aF0.7995238095238095
aa(lp47
I93
aF0.7995238095238095
aa(lp48
I95
aF0.799047619047619
aa(lp49
I97
aF0.7966666666666666
aa.