(lp0
(lp1
I1
aF0.7471428571428571
aa(lp2
I3
aF0.7487301587301587
aa(lp3
I5
aF0.7250793650793651
aa(lp4
I7
aF0.7300000000000001
aa(lp5
I9
aF0.7276190476190477
aa(lp6
I11
aF0.730952380952381
aa(lp7
I13
aF0.7300000000000001
aa(lp8
I15
aF0.7295238095238096
aa(lp9
I17
aF0.720952380952381
aa(lp10
I19
aF0.7185714285714286
aa.